target datalayout = "e-m:e-p270:32:32-p271:32:32-p272:64:64-i64:64-i128:128-f80:128-n8:16:32:64-S128"
target triple = "x86_64-pc-linux-gnu"

%struct.AudioConvert = type { i32, i32, i32, ptr, ptr, ptr, [8 x i8] }

; Function Attrs: nounwind uwtable
define ptr @swri_audio_convert_alloc(i32 noundef %0, i32 noundef %1, i32 noundef %2, ptr noundef %3, i32 noundef %4) #0 {
  %6 = alloca ptr, align 8
  %7 = alloca i32, align 4
  %8 = alloca i32, align 4
  %9 = alloca i32, align 4
  %10 = alloca ptr, align 8
  %11 = alloca i32, align 4
  %12 = alloca ptr, align 8
  %13 = alloca ptr, align 8
  %14 = alloca i32, align 4
  store i32 %0, ptr %7, align 4, !tbaa !4
  store i32 %1, ptr %8, align 4, !tbaa !4
  store i32 %2, ptr %9, align 4, !tbaa !4
  store ptr %3, ptr %10, align 8, !tbaa !8
  store i32 %4, ptr %11, align 4, !tbaa !4
  call void @llvm.lifetime.start.p0(i64 8, ptr %12) #8
  call void @llvm.lifetime.start.p0(i64 8, ptr %13) #8
  %15 = load i32, ptr %7, align 4, !tbaa !4
  %16 = call i32 @av_get_packed_sample_fmt(i32 noundef %15)
  %17 = load i32, ptr %8, align 4, !tbaa !4
  %18 = call i32 @av_get_packed_sample_fmt(i32 noundef %17)
  %19 = mul nsw i32 12, %18
  %20 = add nsw i32 %16, %19
  %21 = sext i32 %20 to i64
  %22 = getelementptr inbounds [144 x ptr], ptr @fmt_pair_to_conv_functions, i64 0, i64 %21
  %23 = load ptr, ptr %22, align 8, !tbaa !11
  store ptr %23, ptr %13, align 8, !tbaa !11
  %24 = load ptr, ptr %13, align 8, !tbaa !11
  %25 = icmp ne ptr %24, null
  br i1 %25, label %27, label %26

26:                                               ; preds = %5
  store ptr null, ptr %6, align 8
  store i32 1, ptr %14, align 4
  br label %84

27:                                               ; preds = %5
  %28 = call noalias ptr @av_mallocz(i64 noundef 48)
  store ptr %28, ptr %12, align 8, !tbaa !12
  %29 = load ptr, ptr %12, align 8, !tbaa !12
  %30 = icmp ne ptr %29, null
  br i1 %30, label %32, label %31

31:                                               ; preds = %27
  store ptr null, ptr %6, align 8
  store i32 1, ptr %14, align 4
  br label %84

32:                                               ; preds = %27
  %33 = load i32, ptr %9, align 4, !tbaa !4
  %34 = icmp eq i32 %33, 1
  br i1 %34, label %35, label %40

35:                                               ; preds = %32
  %36 = load i32, ptr %8, align 4, !tbaa !4
  %37 = call i32 @av_get_planar_sample_fmt(i32 noundef %36)
  store i32 %37, ptr %8, align 4, !tbaa !4
  %38 = load i32, ptr %7, align 4, !tbaa !4
  %39 = call i32 @av_get_planar_sample_fmt(i32 noundef %38)
  store i32 %39, ptr %7, align 4, !tbaa !4
  br label %40

40:                                               ; preds = %35, %32
  %41 = load i32, ptr %9, align 4, !tbaa !4
  %42 = load ptr, ptr %12, align 8, !tbaa !12
  %43 = getelementptr inbounds nuw %struct.AudioConvert, ptr %42, i32 0, i32 0
  store i32 %41, ptr %43, align 8, !tbaa !14
  %44 = load ptr, ptr %13, align 8, !tbaa !11
  %45 = load ptr, ptr %12, align 8, !tbaa !12
  %46 = getelementptr inbounds nuw %struct.AudioConvert, ptr %45, i32 0, i32 3
  store ptr %44, ptr %46, align 8, !tbaa !16
  %47 = load ptr, ptr %10, align 8, !tbaa !8
  %48 = load ptr, ptr %12, align 8, !tbaa !12
  %49 = getelementptr inbounds nuw %struct.AudioConvert, ptr %48, i32 0, i32 5
  store ptr %47, ptr %49, align 8, !tbaa !17
  %50 = load i32, ptr %8, align 4, !tbaa !4
  %51 = icmp eq i32 %50, 0
  br i1 %51, label %55, label %52

52:                                               ; preds = %40
  %53 = load i32, ptr %8, align 4, !tbaa !4
  %54 = icmp eq i32 %53, 5
  br i1 %54, label %55, label %59

55:                                               ; preds = %52, %40
  %56 = load ptr, ptr %12, align 8, !tbaa !12
  %57 = getelementptr inbounds nuw %struct.AudioConvert, ptr %56, i32 0, i32 6
  %58 = getelementptr inbounds [8 x i8], ptr %57, i64 0, i64 0
  call void @llvm.memset.p0.i64(ptr align 8 %58, i8 -128, i64 8, i1 false)
  br label %59

59:                                               ; preds = %55, %52
  %60 = load i32, ptr %7, align 4, !tbaa !4
  %61 = load i32, ptr %8, align 4, !tbaa !4
  %62 = icmp eq i32 %60, %61
  br i1 %62, label %63, label %82

63:                                               ; preds = %59
  %64 = load ptr, ptr %10, align 8, !tbaa !8
  %65 = icmp ne ptr %64, null
  br i1 %65, label %82, label %66

66:                                               ; preds = %63
  %67 = load i32, ptr %8, align 4, !tbaa !4
  %68 = call i32 @av_get_bytes_per_sample(i32 noundef %67)
  switch i32 %68, label %81 [
    i32 1, label %69
    i32 2, label %72
    i32 4, label %75
    i32 8, label %78
  ]

69:                                               ; preds = %66
  %70 = load ptr, ptr %12, align 8, !tbaa !12
  %71 = getelementptr inbounds nuw %struct.AudioConvert, ptr %70, i32 0, i32 4
  store ptr @cpy1, ptr %71, align 8, !tbaa !18
  br label %81

72:                                               ; preds = %66
  %73 = load ptr, ptr %12, align 8, !tbaa !12
  %74 = getelementptr inbounds nuw %struct.AudioConvert, ptr %73, i32 0, i32 4
  store ptr @cpy2, ptr %74, align 8, !tbaa !18
  br label %81

75:                                               ; preds = %66
  %76 = load ptr, ptr %12, align 8, !tbaa !12
  %77 = getelementptr inbounds nuw %struct.AudioConvert, ptr %76, i32 0, i32 4
  store ptr @cpy4, ptr %77, align 8, !tbaa !18
  br label %81

78:                                               ; preds = %66
  %79 = load ptr, ptr %12, align 8, !tbaa !12
  %80 = getelementptr inbounds nuw %struct.AudioConvert, ptr %79, i32 0, i32 4
  store ptr @cpy8, ptr %80, align 8, !tbaa !18
  br label %81

81:                                               ; preds = %66, %78, %75, %72, %69
  br label %82

82:                                               ; preds = %81, %63, %59
  %83 = load ptr, ptr %12, align 8, !tbaa !12
  store ptr %83, ptr %6, align 8
  store i32 1, ptr %14, align 4
  br label %84

84:                                               ; preds = %82, %31, %26
  call void @llvm.lifetime.end.p0(i64 8, ptr %13) #8
  call void @llvm.lifetime.end.p0(i64 8, ptr %12) #8
  %85 = load ptr, ptr %6, align 8
  ret ptr %85
}