; Function Attrs: nounwind uwtable
define noalias ptr @swri_audio_convert_alloc(i32 noundef %0, i32 noundef %1, i32 noundef %2, ptr noundef %3, i32 noundef %4) local_unnamed_addr #0 {
  %6 = tail call i32 @av_get_packed_sample_fmt(i32 noundef %0) #8
  %7 = tail call i32 @av_get_packed_sample_fmt(i32 noundef %1) #8
  %8 = mul nsw i32 %7, 12
  %9 = add nsw i32 %8, %6
  %10 = sext i32 %9 to i64
  %11 = getelementptr inbounds [144 x ptr], ptr @fmt_pair_to_conv_functions, i64 0, i64 %10
  %12 = load ptr, ptr %11, align 8, !tbaa !4
  %.not = icmp eq ptr %12, null
  br i1 %.not, label %33, label %13

13:                                               ; preds = %5
  %14 = tail call noalias ptr @av_mallocz(i64 noundef 48) #8
  %.not32 = icmp eq ptr %14, null
  br i1 %.not32, label %33, label %15

15:                                               ; preds = %13
  %16 = icmp eq i32 %2, 1
  br i1 %16, label %17, label %20

17:                                               ; preds = %15
  %18 = tail call i32 @av_get_planar_sample_fmt(i32 noundef %1) #8
  %19 = tail call i32 @av_get_planar_sample_fmt(i32 noundef %0) #8
  br label %20

20:                                               ; preds = %17, %15
  %.029 = phi i32 [ %18, %17 ], [ %1, %15 ]
  %.028 = phi i32 [ %19, %17 ], [ %0, %15 ]
  store i32 %2, ptr %14, align 8, !tbaa !8
  %21 = getelementptr inbounds nuw i8, ptr %14, i64 16
  store ptr %12, ptr %21, align 8, !tbaa !12
  %22 = getelementptr inbounds nuw i8, ptr %14, i64 32
  store ptr %3, ptr %22, align 8, !tbaa !13
  switch i32 %.029, label %25 [
    i32 5, label %23
    i32 0, label %23
  ]

23:                                               ; preds = %20, %20
  %24 = getelementptr inbounds nuw i8, ptr %14, i64 40
  store i64 -9187201950435737472, ptr %24, align 8
  br label %25

25:                                               ; preds = %20, %23
  %26 = icmp ne i32 %.028, %.029
  %27 = icmp ne ptr %3, null
  %or.cond3 = or i1 %27, %26
  br i1 %or.cond3, label %33, label %28

28:                                               ; preds = %25
  %29 = tail call i32 @av_get_bytes_per_sample(i32 noundef %.029) #8
  %switch.tableidx = add i32 %29, -1
  %30 = icmp ult i32 %switch.tableidx, 8
  %switch.maskindex = trunc i32 %switch.tableidx to i8
  %switch.shifted = lshr i8 -117, %switch.maskindex
  %switch.lobit = trunc i8 %switch.shifted to i1
  %or.cond = select i1 %30, i1 %switch.lobit, i1 false
  br i1 %or.cond, label %switch.lookup, label %33

switch.lookup:                                    ; preds = %28
  %31 = zext nneg i32 %switch.tableidx to i64
  %switch.gep = getelementptr inbounds nuw [8 x ptr], ptr @switch.table.swri_audio_convert_alloc, i64 0, i64 %31
  %switch.load = load ptr, ptr %switch.gep, align 8
  %32 = getelementptr inbounds nuw i8, ptr %14, i64 24
  store ptr %switch.load, ptr %32, align 8, !tbaa !14
  br label %33

33:                                               ; preds = %28, %switch.lookup, %25, %13, %5
  %.0 = phi ptr [ null, %5 ], [ null, %13 ], [ %14, %28 ], [ %14, %25 ], [ %14, %switch.lookup ]
  ret ptr %.0
}